; Function Attrs: nounwind sspstrong uwtable
define dso_local void @ahci_ide_create_devs(ptr noundef readonly captures(none) %0, ptr noundef readonly captures(none) %1) local_unnamed_addr #0 {
  %3 = getelementptr inbounds nuw i8, ptr %0, i64 584
  %4 = load i32, ptr %3, align 8
  %.not = icmp eq i32 %4, 0
  br i1 %.not, label %._crit_edge, label %.lr.ph

.lr.ph:                                           ; preds = %2, %14
  %5 = phi i32 [ %15, %14 ], [ %4, %2 ]
  %.09 = phi i32 [ %16, %14 ], [ 0, %2 ]
  %6 = sext i32 %.09 to i64
  %7 = getelementptr inbounds ptr, ptr %1, i64 %6
  %8 = load ptr, ptr %7, align 8
  %9 = icmp eq ptr %8, null
  br i1 %9, label %14, label %10

10:                                               ; preds = %.lr.ph
  %11 = load ptr, ptr %0, align 16
  %12 = getelementptr inbounds %struct.AHCIDevice, ptr %11, i64 %6, i32 1
  %13 = tail call ptr @ide_bus_create_drive(ptr noundef nonnull %12, i32 noundef 0, ptr noundef nonnull %8) #14
  %.pre = load i32, ptr %3, align 8
  br label %14

14:                                               ; preds = %.lr.ph, %10
  %15 = phi i32 [ %5, %.lr.ph ], [ %.pre, %10 ]
  %16 = add nuw i32 %.09, 1
  %17 = icmp ult i32 %16, %15
  br i1 %17, label %.lr.ph, label %._crit_edge, !llvm.loop !16

._crit_edge:                                      ; preds = %14, %2
  ret void
}